Certificate:
    Data:
        Version: 3 (0x2)
        Serial Number:
            aa:81:de:ad:6d:5f:b8:59:68:1d:84:8c:4e:04:02:19
        Signature Algorithm: sha256WithRSAEncryption
        Issuer: O=Swaptacular Nodes Registry, OU=Debtors Agents/serialNumber=1ec0f50644f3eac2f3fa6cdaac18f5f8
        Validity
            Not Before: Jul 25 12:50:00 2023 GMT
            Not After : Jul 24 12:50:00 2024 GMT
        Subject: O=Swaptacular Nodes Registry, OU=Debtors Agents/serialNumber=1ec0f50644f3eac2f3fa6cdaac18f5f8
        Subject Public Key Info:
            Public Key Algorithm: rsaEncryption
                RSA Public-Key: (3072 bit)
                Modulus:
                    00:cf:1a:2c:6a:f2:41:e0:fd:82:a4:00:86:81:87:
                    4e:01:67:cd:0c:92:35:0c:99:12:a1:9b:b3:20:d1:
                    d4:ce:7e:a7:13:60:5d:2a:9f:f9:be:93:74:ff:26:
                    7b:37:9e:39:0a:7b:cd:51:08:35:c3:9d:17:8d:82:
                    d0:d8:f5:4b:84:40:94:3b:32:e3:88:28:e1:da:bd:
                    91:c1:61:c7:38:c6:91:90:5c:de:41:a9:7b:85:7b:
                    0b:5b:84:9b:5d:89:92:05:34:00:bb:8e:6f:a9:38:
                    06:5b:f4:fa:d1:46:71:9c:bb:d7:25:4f:49:4a:61:
                    50:1a:4d:a5:43:a1:60:55:0d:2d:e3:49:49:73:3f:
                    44:a4:aa:f8:09:67:63:86:6e:3e:a2:16:62:04:79:
                    26:de:b1:94:47:a8:a6:7b:c5:87:c4:50:4c:43:9b:
                    28:80:af:e9:c8:c5:19:d9:44:db:fe:22:80:91:66:
                    3d:7c:5f:85:e8:0c:ea:ce:20:4b:fe:17:2f:25:78:
                    10:da:8a:a6:b2:60:8e:1f:94:0e:b0:b4:41:03:d4:
                    f5:a0:6b:85:0b:02:d8:da:8f:21:75:53:ad:8e:e4:
                    1d:09:f5:80:2c:0d:a9:d5:ec:e4:59:86:50:15:b5:
                    fa:0f:12:ef:fa:9c:6b:9c:af:37:f4:32:85:e9:5e:
                    3d:8d:35:f8:86:bd:18:6a:38:28:c4:a6:44:5d:f6:
                    1a:f6:6b:3e:31:27:bf:7d:14:41:30:a5:5d:93:46:
                    9c:35:4b:f3:ff:b9:b8:bb:39:39:90:41:0f:08:61:
                    a1:16:ec:ba:2a:6e:d4:9b:f9:d9:3a:de:a2:bf:5e:
                    e4:3a:1b:b8:a6:75:f6:1c:6a:97:99:76:5d:37:10:
                    60:d2:4d:39:50:3c:ca:b3:c3:50:5f:41:b4:2e:0d:
                    f1:76:8c:a3:88:ff:8d:88:48:40:b3:50:bd:4e:d5:
                    f4:b1:7a:8a:5d:10:34:f6:d4:68:a7:38:90:09:1b:
                    18:ba:cf:5f:a1:99:42:e6:4a:f5
                Exponent: 65537 (0x10001)
        X509v3 extensions:
            X509v3 Authority Key Identifier: 
                keyid:5B:17:51:67:6B:53:74:8F:97:C8:6D:27:F1:F2:48:9F:5C:49:7A:A9

            X509v3 Basic Constraints: critical
                CA:FALSE
            X509v3 Extended Key Usage: 
                TLS Web Client Authentication, TLS Web Server Authentication
            X509v3 Key Usage: critical
                Digital Signature, Key Encipherment
            X509v3 Subject Key Identifier: 
                74:B7:5B:6D:0B:95:21:ED:2F:74:3C:3B:75:7D:1A:D7:B2:FF:FD:08
    Signature Algorithm: sha256WithRSAEncryption
         b6:5e:14:72:61:5e:70:a4:f9:53:60:4d:04:29:6c:f1:19:66:
         ef:ed:c6:58:24:38:6b:42:80:e0:f0:48:41:17:e7:3f:e2:4d:
         29:d2:ff:2e:22:64:ef:ef:e9:d4:80:bb:cc:fb:5e:df:be:d8:
         94:27:13:c3:a1:c5:80:32:ff:67:64:19:dc:96:ba:e6:7a:f4:
         c9:d8:a8:62:81:6f:53:08:a4:2d:12:c0:c3:52:d0:98:a6:f6:
         69:64:23:91:cf:a4:37:9b:22:90:08:99:2f:f7:89:cc:08:a4:
         1c:ef:2c:e8:3b:af:ca:0f:10:9a:7b:eb:e2:ab:14:11:cf:6c:
         90:58:54:41:d2:92:81:66:21:db:b7:fc:c7:04:78:79:30:bf:
         a3:c3:2f:ff:d3:72:5d:ed:1d:02:57:f1:e1:d2:9b:eb:68:42:
         c0:fc:a1:41:5b:42:f8:bc:5d:5a:06:09:c7:5f:69:81:4e:e1:
         7d:a3:0c:d7:26:4a:7e:df:0a:56:8c:de:47:83:96:8a:5b:e9:
         e0:df:53:89:d8:40:54:8a:aa:e3:6d:c7:8c:1f:6b:16:fe:42:
         25:f0:23:43:7c:6c:0b:54:59:9c:4d:8e:2e:e4:86:a2:9a:79:
         4a:f2:0f:fc:8b:7e:7c:72:cd:30:24:98:0b:ed:4a:cd:17:81:
         5a:5b:f3:32:77:92:78:3a:8f:4b:75:7d:6f:b3:ae:2f:95:02:
         ac:91:f1:b6:bd:62:fb:86:50:8f:0d:a2:59:08:90:04:bc:f0:
         20:0d:f2:48:d9:77:37:e1:40:f6:a1:38:3c:c3:da:5d:ad:39:
         19:1f:72:d1:86:e9:01:6f:43:bf:17:9e:64:48:59:8e:4f:6f:
         ec:b0:da:99:f9:75:cc:1c:cb:01:76:66:cb:b5:d4:c9:a3:41:
         f9:5d:fc:49:12:25:44:7a:9e:aa:6a:9f:63:93:c3:99:ea:57:
         e0:5a:2b:e8:05:15:d1:02:29:df:db:db:ea:2e:02:53:97:98:
         f7:8f:5e:f9:11:a9
-----BEGIN CERTIFICATE-----
MIIE3DCCA0SgAwIBAgIRAKqB3q1tX7hZaB2EjE4EAhkwDQYJKoZIhvcNAQELBQAw
aTEjMCEGA1UECgwaU3dhcHRhY3VsYXIgTm9kZXMgUmVnaXN0cnkxFzAVBgNVBAsM
DkRlYnRvcnMgQWdlbnRzMSkwJwYDVQQFEyAxZWMwZjUwNjQ0ZjNlYWMyZjNmYTZj
ZGFhYzE4ZjVmODAeFw0yMzA3MjUxMjUwMDBaFw0yNDA3MjQxMjUwMDBaMGkxIzAh
BgNVBAoMGlN3YXB0YWN1bGFyIE5vZGVzIFJlZ2lzdHJ5MRcwFQYDVQQLDA5EZWJ0
b3JzIEFnZW50czEpMCcGA1UEBRMgMWVjMGY1MDY0NGYzZWFjMmYzZmE2Y2RhYWMx
OGY1ZjgwggGiMA0GCSqGSIb3DQEBAQUAA4IBjwAwggGKAoIBgQDPGixq8kHg/YKk
AIaBh04BZ80MkjUMmRKhm7Mg0dTOfqcTYF0qn/m+k3T/Jns3njkKe81RCDXDnReN
gtDY9UuEQJQ7MuOIKOHavZHBYcc4xpGQXN5BqXuFewtbhJtdiZIFNAC7jm+pOAZb
9PrRRnGcu9clT0lKYVAaTaVDoWBVDS3jSUlzP0SkqvgJZ2OGbj6iFmIEeSbesZRH
qKZ7xYfEUExDmyiAr+nIxRnZRNv+IoCRZj18X4XoDOrOIEv+Fy8leBDaiqayYI4f
lA6wtEED1PWga4ULAtjajyF1U62O5B0J9YAsDanV7ORZhlAVtfoPEu/6nGucrzf0
MoXpXj2NNfiGvRhqOCjEpkRd9hr2az4xJ799FEEwpV2TRpw1S/P/ubi7OTmQQQ8I
YaEW7LoqbtSb+dk63qK/XuQ6G7imdfYcapeZdl03EGDSTTlQPMqzw1BfQbQuDfF2
jKOI/42ISECzUL1O1fSxeopdEDT21GinOJAJGxi6z1+hmULmSvUCAwEAAaN/MH0w
HwYDVR0jBBgwFoAUWxdRZ2tTdI+XyG0n8fJIn1xJeqkwDAYDVR0TAQH/BAIwADAd
BgNVHSUEFjAUBggrBgEFBQcDAgYIKwYBBQUHAwEwDgYDVR0PAQH/BAQDAgWgMB0G
A1UdDgQWBBR0t1ttC5Uh7S90PDt1fRrXsv/9CDANBgkqhkiG9w0BAQsFAAOCAYEA
tl4UcmFecKT5U2BNBCls8Rlm7+3GWCQ4a0KA4PBIQRfnP+JNKdL/LiJk7+/p1IC7
zPte377YlCcTw6HFgDL/Z2QZ3Ja65nr0ydioYoFvUwikLRLAw1LQmKb2aWQjkc+k
N5sikAiZL/eJzAikHO8s6Duvyg8Qmnvr4qsUEc9skFhUQdKSgWYh27f8xwR4eTC/
o8Mv/9NyXe0dAlfx4dKb62hCwPyhQVtC+LxdWgYJx19pgU7hfaMM1yZKft8KVoze
R4OWilvp4N9TidhAVIqq423HjB9rFv5CJfAjQ3xsC1RZnE2OLuSGopp5SvIP/It+
fHLNMCSYC+1KzReBWlvzMneSeDqPS3V9b7OuL5UCrJHxtr1i+4ZQjw2iWQiQBLzw
IA3ySNl3N+FA9qE4PMPaXa05GR9y0YbpAW9DvxeeZEhZjk9v7LDamfl1zBzLAXZm
y7XUyaNB+V38SRIlRHqeqmqfY5PDmepX4For6AUV0QIp39vb6i4CU5eY949e+RGp
-----END CERTIFICATE-----
