Certificate:
    Data:
        Version: 3 (0x2)
        Serial Number:
            4a:4c:ac:5f:d5:96:55:41:38:c8:5d:30:7c:bc:0b:df
        Signature Algorithm: sha256WithRSAEncryption
        Issuer: O=Swaptacular Nodes Registry, OU=Accounting Authorities/serialNumber=1234abcd
        Validity
            Not Before: Jul 25 09:13:32 2023 GMT
            Not After : Nov 25 09:13:32 3022 GMT
        Subject: O=Swaptacular Nodes Registry, OU=Accounting Authorities/serialNumber=1234abcd
        Subject Public Key Info:
            Public Key Algorithm: rsaEncryption
                RSA Public-Key: (3072 bit)
                Modulus:
                    00:b7:40:32:eb:22:08:43:e4:46:d2:7e:44:2c:21:
                    90:35:4b:e3:3d:64:6f:f1:21:a5:77:b6:fd:39:27:
                    98:d3:7e:c0:d3:d4:06:04:88:bd:9d:ef:29:1a:0f:
                    6a:1e:df:9d:5c:2f:8d:d3:4c:bf:bb:b7:c2:88:bb:
                    b4:d1:e7:be:85:68:73:1c:0d:44:89:6b:d8:fa:8d:
                    87:9e:23:00:b0:54:65:40:32:33:2d:7e:9f:56:e0:
                    9d:73:6a:50:9d:9f:e4:9d:f8:44:56:5b:16:f7:3b:
                    47:b0:c4:89:f0:b9:d3:f0:89:7f:b9:31:d9:1d:bb:
                    86:75:3f:eb:1a:fc:04:dc:5d:4a:d4:3e:91:9e:71:
                    8c:27:30:46:b3:33:2c:b8:fd:b7:b4:c6:dd:eb:cb:
                    86:41:f8:37:a1:21:4d:d7:ca:02:ac:00:d7:73:d8:
                    fb:1b:15:48:de:40:82:0b:0f:49:2d:32:cd:a5:f2:
                    4c:9d:38:36:01:29:91:9f:1f:c8:6f:7d:e4:b4:00:
                    06:ee:52:50:e3:b5:cb:d0:ad:f2:58:8b:07:b4:a5:
                    e2:12:3e:a7:4b:6e:a8:b1:52:2f:4b:3c:ba:c8:94:
                    c7:64:35:91:9d:94:99:87:a3:24:cb:31:2e:02:99:
                    a7:6a:24:a2:37:0a:98:07:d6:e0:ac:cb:d2:e2:6b:
                    7d:80:a5:1c:9c:8b:c8:86:d8:dd:72:97:40:cf:c4:
                    b5:29:c4:7c:81:77:c0:ce:f4:12:42:aa:50:d7:d0:
                    c9:2b:db:7b:9d:b0:d8:2f:f0:0a:33:6b:45:6f:f7:
                    6f:a8:7b:b7:3c:f5:f8:98:14:7b:a8:f3:e8:43:74:
                    d5:bd:ee:ee:e0:58:d5:8a:1d:cd:cc:ef:6d:89:3a:
                    81:b8:8a:86:c5:05:b0:1a:da:ef:ee:50:67:a2:34:
                    7c:62:ea:ad:d0:4c:02:0b:26:43:43:c1:03:27:b9:
                    a4:c6:2c:37:a8:00:96:fc:6d:0b:66:59:3c:46:5a:
                    3e:87:40:11:f7:b7:20:af:67:c5
                Exponent: 65537 (0x10001)
        X509v3 extensions:
            X509v3 Basic Constraints: critical
                CA:TRUE, pathlen:1
            X509v3 Key Usage: critical
                Certificate Sign, CRL Sign
            X509v3 Subject Key Identifier: 
                08:7B:E1:55:F4:CD:A7:9C:C2:A4:A9:FC:1D:82:F1:A9:53:0D:CE:A9
    Signature Algorithm: sha256WithRSAEncryption
         59:b4:c9:90:b4:52:a1:ad:14:31:6b:7d:a9:90:89:53:d2:38:
         97:0d:c8:9d:44:b0:05:cf:d1:c3:2e:19:69:4e:af:bf:d7:95:
         f3:9f:c9:42:23:5f:34:9a:63:f6:c9:01:1b:6d:5d:49:ba:0f:
         9b:24:bd:f9:ee:95:25:7a:0b:6d:bd:3e:ee:b8:35:4c:57:a7:
         74:aa:c7:4d:74:b7:ad:a6:4e:25:48:0f:03:21:91:a3:21:9a:
         63:04:8c:f5:8b:75:0f:d7:a2:5c:23:90:64:b8:7a:0d:fe:2c:
         12:90:3f:ad:1f:1c:8e:ea:aa:0c:f1:9e:1a:0d:07:0e:6b:7b:
         8d:76:57:cc:7c:05:3a:6d:b0:78:0d:1b:2c:a4:8a:ff:16:5b:
         37:a0:c4:70:b9:a7:07:43:02:a2:6e:64:c3:6a:e3:61:64:89:
         e1:91:6e:76:2b:ba:ca:40:c4:1f:bb:a6:ee:93:19:f0:aa:c2:
         92:65:6c:7d:7f:55:4b:53:63:09:67:34:56:ea:79:a6:04:81:
         6a:9b:ca:04:48:04:41:40:22:df:17:6f:30:46:1e:9f:4a:04:
         95:d9:66:85:a4:fd:63:a2:ce:05:8d:2d:45:13:8b:fe:b1:fb:
         7b:1d:2c:3a:61:cd:1f:3d:04:e6:a8:2a:32:a6:66:77:44:c4:
         78:d9:68:dd:b3:e4:32:cd:a0:16:dd:ee:eb:72:2b:8d:26:2a:
         98:84:50:ee:9f:9c:24:25:15:94:df:b3:cc:8e:de:c9:c5:70:
         30:17:96:8f:54:f1:89:76:82:2a:af:6a:a9:31:59:21:88:e6:
         29:67:2e:bc:e9:6d:0a:70:54:d3:55:8e:56:04:64:c3:22:66:
         a4:4f:5c:5b:6c:1d:60:99:54:0b:89:8d:65:fa:ad:c1:36:2a:
         c9:9a:75:31:91:9f:d3:10:2c:ab:50:6b:ca:a6:31:bd:ba:a7:
         06:a4:e1:9f:eb:67:eb:55:07:cf:d5:84:8d:96:a7:7c:b1:b2:
         c3:8b:c6:91:db:27
-----BEGIN CERTIFICATE-----
MIIEgzCCAuugAwIBAgIQSkysX9WWVUE4yF0wfLwL3zANBgkqhkiG9w0BAQsFADBZ
MSMwIQYDVQQKDBpTd2FwdGFjdWxhciBOb2RlcyBSZWdpc3RyeTEfMB0GA1UECwwW
QWNjb3VudGluZyBBdXRob3JpdGllczERMA8GA1UEBRMIMTIzNGFiY2QwIBcNMjMw
NzI1MDkxMzMyWhgPMzAyMjExMjUwOTEzMzJaMFkxIzAhBgNVBAoMGlN3YXB0YWN1
bGFyIE5vZGVzIFJlZ2lzdHJ5MR8wHQYDVQQLDBZBY2NvdW50aW5nIEF1dGhvcml0
aWVzMREwDwYDVQQFEwgxMjM0YWJjZDCCAaIwDQYJKoZIhvcNAQEBBQADggGPADCC
AYoCggGBALdAMusiCEPkRtJ+RCwhkDVL4z1kb/EhpXe2/TknmNN+wNPUBgSIvZ3v
KRoPah7fnVwvjdNMv7u3woi7tNHnvoVocxwNRIlr2PqNh54jALBUZUAyMy1+n1bg
nXNqUJ2f5J34RFZbFvc7R7DEifC50/CJf7kx2R27hnU/6xr8BNxdStQ+kZ5xjCcw
RrMzLLj9t7TG3evLhkH4N6EhTdfKAqwA13PY+xsVSN5AggsPSS0yzaXyTJ04NgEp
kZ8fyG995LQABu5SUOO1y9Ct8liLB7Sl4hI+p0tuqLFSL0s8usiUx2Q1kZ2UmYej
JMsxLgKZp2okojcKmAfW4KzL0uJrfYClHJyLyIbY3XKXQM/EtSnEfIF3wM70EkKq
UNfQySvbe52w2C/wCjNrRW/3b6h7tzz1+JgUe6jz6EN01b3u7uBY1YodzczvbYk6
gbiKhsUFsBra7+5QZ6I0fGLqrdBMAgsmQ0PBAye5pMYsN6gAlvxtC2ZZPEZaPodA
Efe3IK9nxQIDAQABo0UwQzASBgNVHRMBAf8ECDAGAQH/AgEBMA4GA1UdDwEB/wQE
AwIBBjAdBgNVHQ4EFgQUCHvhVfTNp5zCpKn8HYLxqVMNzqkwDQYJKoZIhvcNAQEL
BQADggGBAFm0yZC0UqGtFDFrfamQiVPSOJcNyJ1EsAXP0cMuGWlOr7/XlfOfyUIj
XzSaY/bJARttXUm6D5skvfnulSV6C229Pu64NUxXp3Sqx010t62mTiVIDwMhkaMh
mmMEjPWLdQ/XolwjkGS4eg3+LBKQP60fHI7qqgzxnhoNBw5re412V8x8BTptsHgN
Gyykiv8WWzegxHC5pwdDAqJuZMNq42FkieGRbnYruspAxB+7pu6TGfCqwpJlbH1/
VUtTYwlnNFbqeaYEgWqbygRIBEFAIt8XbzBGHp9KBJXZZoWk/WOizgWNLUUTi/6x
+3sdLDphzR89BOaoKjKmZndExHjZaN2z5DLNoBbd7utyK40mKpiEUO6fnCQlFZTf
s8yO3snFcDAXlo9U8Yl2giqvaqkxWSGI5ilnLrzpbQpwVNNVjlYEZMMiZqRPXFts
HWCZVAuJjWX6rcE2KsmadTGRn9MQLKtQa8qmMb26pwak4Z/rZ+tVB8/VhI2Wp3yx
ssOLxpHbJw==
-----END CERTIFICATE-----
