Certificate:
    Data:
        Version: 3 (0x2)
        Serial Number:
            4a:4c:ac:5f:d5:96:55:41:38:c8:5d:30:7c:bc:0b:e2
        Signature Algorithm: sha256WithRSAEncryption
        Issuer: O=Swaptacular Nodes Registry, OU=Accounting Authorities/serialNumber=1234abcd
        Validity
            Not Before: Jul 25 12:53:30 2023 GMT
            Not After : Nov 25 12:53:30 3022 GMT
        Subject: O=Swaptacular Nodes Registry, OU=Debtors Agents/serialNumber=1ec0f50644f3eac2f3fa6cdaac18f5f8
        Subject Public Key Info:
            Public Key Algorithm: rsaEncryption
                RSA Public-Key: (3072 bit)
                Modulus:
                    00:c6:b6:94:fb:65:ce:e9:6d:6b:95:f5:ae:2a:60:
                    11:c4:94:0c:a6:c4:fe:5c:48:fa:6e:d7:c2:18:4d:
                    75:88:86:ab:52:0e:59:37:78:dd:a1:f4:3f:4c:61:
                    fc:35:8e:b7:ae:ea:e9:2f:fb:bb:25:a8:5f:e2:25:
                    e3:a7:61:d5:0b:6c:ed:dd:3d:3b:03:05:6e:64:db:
                    49:e6:ec:a9:2b:5c:f5:07:2c:f9:34:14:4e:d0:1e:
                    de:61:2c:66:d0:e6:70:a3:c8:a9:97:86:54:e6:c9:
                    6f:30:24:1e:ce:7f:af:17:b3:cc:d8:45:f4:b1:2a:
                    54:e1:33:bd:3c:b0:15:3f:0e:fa:fe:97:75:e9:a1:
                    71:4f:60:92:0c:ab:53:fc:ca:f9:82:3d:fd:47:b0:
                    9f:51:58:47:b0:76:5d:5a:05:cf:92:bc:98:fa:e0:
                    44:2e:5a:0c:2d:c7:7b:0c:1f:ad:6b:d0:9f:2e:76:
                    1d:ea:c1:f0:be:16:60:20:ea:df:45:d9:be:4e:4b:
                    f9:e4:3b:a8:b2:fd:52:c4:a3:9e:4d:2b:d3:cf:09:
                    b0:93:91:a6:1f:44:58:21:54:12:d2:36:7e:b5:67:
                    eb:41:4e:48:a6:e5:5e:9e:ae:7d:0f:a6:cd:32:c5:
                    f3:7a:58:5a:8b:03:c1:28:6e:88:82:40:65:53:6e:
                    7b:35:35:59:86:8d:44:ea:62:ef:3b:db:3f:50:b4:
                    96:98:72:8f:fb:07:83:42:51:5c:70:ba:44:59:1e:
                    73:ca:d9:a9:a8:46:96:ac:a9:fc:47:2d:b6:91:b5:
                    90:79:03:23:1c:4b:b8:17:76:16:c9:9e:26:66:87:
                    03:df:62:33:f8:13:89:5b:b5:b6:8f:53:0b:81:78:
                    6a:54:9e:87:fc:20:6e:d1:b7:ab:ce:79:80:af:c0:
                    df:36:5f:6e:8d:92:b1:a2:15:84:fc:13:10:d5:f7:
                    7f:89:17:26:cb:27:82:0e:e6:8f:33:c4:d9:16:ca:
                    b4:41:c2:96:6e:89:f3:e6:a4:b1
                Exponent: 65537 (0x10001)
        X509v3 extensions:
            X509v3 Authority Key Identifier: 
                keyid:08:7B:E1:55:F4:CD:A7:9C:C2:A4:A9:FC:1D:82:F1:A9:53:0D:CE:A9

            X509v3 Basic Constraints: critical
                CA:TRUE, pathlen:0
            X509v3 Extended Key Usage: 
                TLS Web Client Authentication, TLS Web Server Authentication
            X509v3 Key Usage: critical
                Certificate Sign, CRL Sign
            X509v3 Name Constraints: critical
                Permitted:
                  DirName:O = Swaptacular Nodes Registry, OU = Debtors Agents, serialNumber = 1ec0f50644f3eac2f3fa6cdaac18f5f8

            X509v3 Subject Key Identifier: 
                5B:17:51:67:6B:53:74:8F:97:C8:6D:27:F1:F2:48:9F:5C:49:7A:A9
            Netscape Comment: 
                Subnet: 1234abcd00
    Signature Algorithm: sha256WithRSAEncryption
         6d:2b:03:12:ee:05:86:3e:98:2c:16:11:62:48:68:de:3a:98:
         24:a0:d1:64:0a:10:ce:98:9c:3a:58:d6:d8:17:2c:76:c1:91:
         9d:ac:0c:3a:44:fb:8c:16:0a:c9:88:45:4d:26:cc:87:33:89:
         56:a3:3e:d1:32:b6:1e:2b:87:b6:59:8f:1c:04:6b:e5:3f:8a:
         b4:f9:7c:c1:81:0a:9e:b8:b3:bb:70:33:18:94:3e:1d:38:f7:
         b9:95:5c:42:f1:49:46:b4:32:a7:61:d8:11:fc:92:ad:83:b7:
         ae:f5:b2:bd:ef:19:b5:ce:f9:0c:3e:df:4d:d3:0f:bd:18:39:
         e5:ac:5d:17:b3:f0:63:5b:49:f4:77:72:a0:2c:47:a5:b6:b3:
         58:ae:bb:72:26:90:98:db:9e:f3:65:e8:3d:43:60:0e:78:d3:
         2c:aa:49:d6:0d:99:1f:6c:aa:a5:82:fa:bb:5d:b3:aa:af:57:
         8a:60:48:72:59:9f:f9:be:8e:ee:8c:9d:92:c0:70:b7:00:89:
         9b:52:09:ac:7d:25:14:4b:4b:8c:bf:c5:73:3d:da:ad:17:05:
         8a:7a:a1:fe:9a:38:2b:d1:be:ed:a6:8e:84:be:e5:0f:b4:5e:
         7b:51:b3:dd:85:b6:f3:38:1a:cb:fa:66:94:57:d8:ec:07:03:
         4f:89:a0:62:04:8f:66:f2:49:1c:f5:85:d4:c0:08:50:88:64:
         fd:7e:60:e4:df:ea:21:65:21:61:67:50:08:72:ab:85:1d:76:
         8e:8d:c1:56:3d:43:72:29:b2:e0:ef:a1:b8:9f:19:79:1e:f1:
         d1:46:ad:51:2c:9d:fe:9f:a5:09:4c:13:9d:84:d5:77:6a:4d:
         a7:7a:da:60:d0:0e:84:40:be:95:54:a8:69:e2:ee:14:ad:66:
         3b:ef:65:88:1c:5a:7a:51:5b:d8:02:8e:8f:c2:ea:ca:5a:ef:
         56:bf:ee:d9:cc:a5:e1:53:ef:00:63:ae:ab:14:38:7e:54:3a:
         b0:be:67:73:ed:a0
-----BEGIN CERTIFICATE-----
MIIFeTCCA+GgAwIBAgIQSkysX9WWVUE4yF0wfLwL4jANBgkqhkiG9w0BAQsFADBZ
MSMwIQYDVQQKDBpTd2FwdGFjdWxhciBOb2RlcyBSZWdpc3RyeTEfMB0GA1UECwwW
QWNjb3VudGluZyBBdXRob3JpdGllczERMA8GA1UEBRMIMTIzNGFiY2QwIBcNMjMw
NzI1MTI1MzMwWhgPMzAyMjExMjUxMjUzMzBaMGkxIzAhBgNVBAoMGlN3YXB0YWN1
bGFyIE5vZGVzIFJlZ2lzdHJ5MRcwFQYDVQQLDA5EZWJ0b3JzIEFnZW50czEpMCcG
A1UEBRMgMWVjMGY1MDY0NGYzZWFjMmYzZmE2Y2RhYWMxOGY1ZjgwggGiMA0GCSqG
SIb3DQEBAQUAA4IBjwAwggGKAoIBgQDGtpT7Zc7pbWuV9a4qYBHElAymxP5cSPpu
18IYTXWIhqtSDlk3eN2h9D9MYfw1jreu6ukv+7slqF/iJeOnYdULbO3dPTsDBW5k
20nm7KkrXPUHLPk0FE7QHt5hLGbQ5nCjyKmXhlTmyW8wJB7Of68Xs8zYRfSxKlTh
M708sBU/Dvr+l3XpoXFPYJIMq1P8yvmCPf1HsJ9RWEewdl1aBc+SvJj64EQuWgwt
x3sMH61r0J8udh3qwfC+FmAg6t9F2b5OS/nkO6iy/VLEo55NK9PPCbCTkaYfRFgh
VBLSNn61Z+tBTkim5V6ern0Pps0yxfN6WFqLA8EoboiCQGVTbns1NVmGjUTqYu87
2z9QtJaYco/7B4NCUVxwukRZHnPK2amoRpasqfxHLbaRtZB5AyMcS7gXdhbJniZm
hwPfYjP4E4lbtbaPUwuBeGpUnof8IG7Rt6vOeYCvwN82X26NkrGiFYT8ExDV93+J
FybLJ4IO5o8zxNkWyrRBwpZuifPmpLECAwEAAaOCASkwggElMB8GA1UdIwQYMBaA
FAh74VX0zaecwqSp/B2C8alTDc6pMBIGA1UdEwEB/wQIMAYBAf8CAQAwHQYDVR0l
BBYwFAYIKwYBBQUHAwIGCCsGAQUFBwMBMA4GA1UdDwEB/wQEAwIBBjB9BgNVHR4B
Af8EczBxoG8wbaRrMGkxIzAhBgNVBAoMGlN3YXB0YWN1bGFyIE5vZGVzIFJlZ2lz
dHJ5MRcwFQYDVQQLDA5EZWJ0b3JzIEFnZW50czEpMCcGA1UEBRMgMWVjMGY1MDY0
NGYzZWFjMmYzZmE2Y2RhYWMxOGY1ZjgwHQYDVR0OBBYEFFsXUWdrU3SPl8htJ/Hy
SJ9cSXqpMCEGCWCGSAGG+EIBDQQUFhJTdWJuZXQ6IDEyMzRhYmNkMDAwDQYJKoZI
hvcNAQELBQADggGBAG0rAxLuBYY+mCwWEWJIaN46mCSg0WQKEM6YnDpY1tgXLHbB
kZ2sDDpE+4wWCsmIRU0mzIcziVajPtEyth4rh7ZZjxwEa+U/irT5fMGBCp64s7tw
MxiUPh0497mVXELxSUa0Mqdh2BH8kq2Dt671sr3vGbXO+Qw+303TD70YOeWsXRez
8GNbSfR3cqAsR6W2s1iuu3ImkJjbnvNl6D1DYA540yyqSdYNmR9sqqWC+rtds6qv
V4pgSHJZn/m+ju6MnZLAcLcAiZtSCax9JRRLS4y/xXM92q0XBYp6of6aOCvRvu2m
joS+5Q+0XntRs92FtvM4Gsv6ZpRX2OwHA0+JoGIEj2bySRz1hdTACFCIZP1+YOTf
6iFlIWFnUAhyq4Uddo6NwVY9Q3IpsuDvobifGXke8dFGrVEsnf6fpQlME52E1Xdq
Tad62mDQDoRAvpVUqGni7hStZjvvZYgcWnpRW9gCjo/C6spa71a/7tnMpeFT7wBj
rqsUOH5UOrC+Z3PtoA==
-----END CERTIFICATE-----
